target datalayout = "e-m:e-p270:32:32-p271:32:32-p272:64:64-i64:64-i128:128-f80:128-n8:16:32:64-S128"
target triple = "x86_64-pc-linux-gnu"

%class.StackWatermarkFramesIterator = type <{ ptr, i64, i64, %class.StackFrameStream, ptr, i8, [7 x i8] }>
%class.StackFrameStream = type <{ %class.frame, %class.RegisterMap, i8, [7 x i8] }>
%class.frame = type { %union.anon, ptr, ptr, ptr, i32, i8, %union.anon.0, %union.anon.1 }
%union.anon = type { ptr }
%union.anon.0 = type { ptr }
%union.anon.1 = type { ptr }
%class.RegisterMap = type <{ [609 x ptr], [10 x i64], i8, [7 x i8], ptr, %class.stackChunkHandle, i32, i8, i8, i8, i8 }>
%class.stackChunkHandle = type { %class.Handle }
%class.Handle = type { ptr }

; Function Attrs: mustprogress nounwind uwtable
define hidden noundef zeroext i1 @_ZNK28StackWatermarkFramesIterator8has_nextEv(ptr noundef nonnull align 8 dereferenceable(5081) %0) #1 align 2 {
  %2 = alloca ptr, align 8
  store ptr %0, ptr %2, align 8
  %3 = load ptr, ptr %2, align 8
  %4 = getelementptr inbounds %class.StackWatermarkFramesIterator, ptr %3, i32 0, i32 5
  %5 = load i8, ptr %4, align 8
  %6 = trunc i8 %5 to i1
  %7 = xor i1 %6, true
  ret i1 %7
}

; Function Attrs: mustprogress nounwind uwtable
define hidden void @_ZN28StackWatermarkFramesIterator13set_watermarkEm(ptr noundef nonnull align 8 dereferenceable(5081) %0, i64 noundef %1) #1 align 2 {
  %3 = alloca ptr, align 8
  %4 = alloca i64, align 8
  store ptr %0, ptr %3, align 8
  store i64 %1, ptr %4, align 8
  %5 = load ptr, ptr %3, align 8
  %6 = call noundef zeroext i1 @_ZNK28StackWatermarkFramesIterator8has_nextEv(ptr noundef nonnull align 8 dereferenceable(5081) %5)
  br i1 %6, label %8, label %7

7:                                                ; preds = %2
  br label %29

8:                                                ; preds = %2
  %9 = getelementptr inbounds %class.StackWatermarkFramesIterator, ptr %5, i32 0, i32 2
  %10 = load i64, ptr %9, align 8
  %11 = icmp eq i64 %10, 0
  br i1 %11, label %12, label %15

12:                                               ; preds = %8
  %13 = load i64, ptr %4, align 8
  %14 = getelementptr inbounds %class.StackWatermarkFramesIterator, ptr %5, i32 0, i32 2
  store i64 %13, ptr %14, align 8
  br label %29

15:                                               ; preds = %8
  %16 = getelementptr inbounds %class.StackWatermarkFramesIterator, ptr %5, i32 0, i32 1
  %17 = load i64, ptr %16, align 8
  %18 = icmp eq i64 %17, 0
  br i1 %18, label %19, label %22

19:                                               ; preds = %15
  %20 = load i64, ptr %4, align 8
  %21 = getelementptr inbounds %class.StackWatermarkFramesIterator, ptr %5, i32 0, i32 1
  store i64 %20, ptr %21, align 8
  br label %28

22:                                               ; preds = %15
  %23 = getelementptr inbounds %class.StackWatermarkFramesIterator, ptr %5, i32 0, i32 1
  %24 = load i64, ptr %23, align 8
  %25 = getelementptr inbounds %class.StackWatermarkFramesIterator, ptr %5, i32 0, i32 2
  store i64 %24, ptr %25, align 8
  %26 = load i64, ptr %4, align 8
  %27 = getelementptr inbounds %class.StackWatermarkFramesIterator, ptr %5, i32 0, i32 1
  store i64 %26, ptr %27, align 8
  br label %28

28:                                               ; preds = %22, %19
  br label %29

29:                                               ; preds = %28, %12, %7
  ret void
}