; Function Attrs: mustprogress nofree norecurse nosync nounwind willreturn memory(write, argmem: readwrite, inaccessiblemem: none) uwtable
define hidden void @_ZN28StackWatermarkFramesIterator13set_watermarkEm(ptr nocapture noundef nonnull align 8 dereferenceable(5081) %0, i64 noundef %1) local_unnamed_addr #0 align 2 {
  %3 = getelementptr inbounds i8, ptr %0, i64 5080
  %4 = load i8, ptr %3, align 8
  %5 = trunc i8 %4 to i1
  br i1 %5, label %15, label %6

6:                                                ; preds = %2
  %7 = getelementptr inbounds i8, ptr %0, i64 16
  %8 = load i64, ptr %7, align 8
  %9 = icmp eq i64 %8, 0
  br i1 %9, label %.sink.split, label %10

10:                                               ; preds = %6
  %11 = getelementptr inbounds i8, ptr %0, i64 8
  %12 = load i64, ptr %11, align 8
  %13 = icmp eq i64 %12, 0
  br i1 %13, label %.sink.split, label %14

14:                                               ; preds = %10
  store i64 %12, ptr %7, align 8
  br label %.sink.split

.sink.split:                                      ; preds = %10, %6, %14
  %.sink = phi ptr [ %11, %14 ], [ %7, %6 ], [ %11, %10 ]
  store i64 %1, ptr %.sink, align 8
  br label %15

15:                                               ; preds = %.sink.split, %2
  ret void
}